; ModuleID = '32/588.c'
source_filename = "32/588.c"
target datalayout = "e-m:e-p270:32:32-p271:32:32-p272:64:64-i64:64-f80:128-n8:16:32:64-S128"
target triple = "x86_64-pc-linux-gnu"

@.str = private unnamed_addr constant [3 x i8] c"%d\00", align 1
@.str.1 = private unnamed_addr constant [2 x i8] c"\0A\00", align 1

; Function Attrs: noinline nounwind uwtable
define dso_local i32 @main() #0 {
  %1 = alloca i32, align 4
  %2 = alloca i32, align 4
  %3 = alloca i32, align 4
  %4 = alloca i32, align 4
  %5 = alloca [101 x i32], align 16
  %6 = alloca i32, align 4
  %7 = alloca i32, align 4
  %8 = alloca [101 x i8], align 16
  %9 = alloca [101 x i8], align 16
  %10 = alloca [2 x i8], align 1
  store i32 0, i32* %1, align 4
  %11 = call i32 (i8*, ...) @__isoc99_scanf(i8* getelementptr inbounds ([3 x i8], [3 x i8]* @.str, i64 0, i64 0), i32* %2)
  store i32 1, i32* %6, align 4
  br label %12

12:                                               ; preds = %164, %0
  %13 = load i32, i32* %6, align 4
  %14 = load i32, i32* %2, align 4
  %15 = icmp sle i32 %13, %14
  br i1 %15, label %16, label %167

16:                                               ; preds = %12
  %17 = getelementptr inbounds [2 x i8], [2 x i8]* %10, i64 0, i64 0
  %18 = call i32 (i8*, ...) bitcast (i32 (...)* @gets to i32 (i8*, ...)*)(i8* %17)
  %19 = getelementptr inbounds [101 x i8], [101 x i8]* %8, i64 0, i64 0
  %20 = call i32 (i8*, ...) bitcast (i32 (...)* @gets to i32 (i8*, ...)*)(i8* %19)
  %21 = getelementptr inbounds [101 x i8], [101 x i8]* %9, i64 0, i64 0
  %22 = call i32 (i8*, ...) bitcast (i32 (...)* @gets to i32 (i8*, ...)*)(i8* %21)
  %23 = getelementptr inbounds [101 x i8], [101 x i8]* %8, i64 0, i64 0
  %24 = call i64 @strlen(i8* %23) #3
  %25 = trunc i64 %24 to i32
  store i32 %25, i32* %3, align 4
  %26 = getelementptr inbounds [101 x i8], [101 x i8]* %9, i64 0, i64 0
  %27 = call i64 @strlen(i8* %26) #3
  %28 = trunc i64 %27 to i32
  store i32 %28, i32* %4, align 4
  store i32 1, i32* %7, align 4
  br label %29

29:                                               ; preds = %125, %16
  %30 = load i32, i32* %7, align 4
  %31 = load i32, i32* %4, align 4
  %32 = icmp sle i32 %30, %31
  br i1 %32, label %33, label %128

33:                                               ; preds = %29
  %34 = load i32, i32* %3, align 4
  %35 = load i32, i32* %7, align 4
  %36 = sub nsw i32 %34, %35
  %37 = sext i32 %36 to i64
  %38 = getelementptr inbounds [101 x i8], [101 x i8]* %8, i64 0, i64 %37
  %39 = load i8, i8* %38, align 1
  %40 = sext i8 %39 to i32
  %41 = load i32, i32* %4, align 4
  %42 = load i32, i32* %7, align 4
  %43 = sub nsw i32 %41, %42
  %44 = sext i32 %43 to i64
  %45 = getelementptr inbounds [101 x i8], [101 x i8]* %9, i64 0, i64 %44
  %46 = load i8, i8* %45, align 1
  %47 = sext i8 %46 to i32
  %48 = icmp sge i32 %40, %47
  br i1 %48, label %49, label %70

49:                                               ; preds = %33
  %50 = load i32, i32* %3, align 4
  %51 = load i32, i32* %7, align 4
  %52 = sub nsw i32 %50, %51
  %53 = sext i32 %52 to i64
  %54 = getelementptr inbounds [101 x i8], [101 x i8]* %8, i64 0, i64 %53
  %55 = load i8, i8* %54, align 1
  %56 = sext i8 %55 to i32
  %57 = load i32, i32* %4, align 4
  %58 = load i32, i32* %7, align 4
  %59 = sub nsw i32 %57, %58
  %60 = sext i32 %59 to i64
  %61 = getelementptr inbounds [101 x i8], [101 x i8]* %9, i64 0, i64 %60
  %62 = load i8, i8* %61, align 1
  %63 = sext i8 %62 to i32
  %64 = sub nsw i32 %56, %63
  %65 = load i32, i32* %3, align 4
  %66 = load i32, i32* %7, align 4
  %67 = sub nsw i32 %65, %66
  %68 = sext i32 %67 to i64
  %69 = getelementptr inbounds [101 x i32], [101 x i32]* %5, i64 0, i64 %68
  store i32 %64, i32* %69, align 4
  br label %70

70:                                               ; preds = %49, %33
  %71 = load i32, i32* %3, align 4
  %72 = load i32, i32* %7, align 4
  %73 = sub nsw i32 %71, %72
  %74 = sext i32 %73 to i64
  %75 = getelementptr inbounds [101 x i8], [101 x i8]* %8, i64 0, i64 %74
  %76 = load i8, i8* %75, align 1
  %77 = sext i8 %76 to i32
  %78 = load i32, i32* %4, align 4
  %79 = load i32, i32* %7, align 4
  %80 = sub nsw i32 %78, %79
  %81 = sext i32 %80 to i64
  %82 = getelementptr inbounds [101 x i8], [101 x i8]* %9, i64 0, i64 %81
  %83 = load i8, i8* %82, align 1
  %84 = sext i8 %83 to i32
  %85 = icmp slt i32 %77, %84
  br i1 %85, label %86, label %124

86:                                               ; preds = %70
  %87 = load i32, i32* %3, align 4
  %88 = load i32, i32* %7, align 4
  %89 = sub nsw i32 %87, %88
  %90 = sext i32 %89 to i64
  %91 = getelementptr inbounds [101 x i8], [101 x i8]* %8, i64 0, i64 %90
  %92 = load i8, i8* %91, align 1
  %93 = sext i8 %92 to i32
  %94 = add nsw i32 10, %93
  %95 = load i32, i32* %4, align 4
  %96 = load i32, i32* %7, align 4
  %97 = sub nsw i32 %95, %96
  %98 = sext i32 %97 to i64
  %99 = getelementptr inbounds [101 x i8], [101 x i8]* %9, i64 0, i64 %98
  %100 = load i8, i8* %99, align 1
  %101 = sext i8 %100 to i32
  %102 = sub nsw i32 %94, %101
  %103 = load i32, i32* %3, align 4
  %104 = load i32, i32* %7, align 4
  %105 = sub nsw i32 %103, %104
  %106 = sext i32 %105 to i64
  %107 = getelementptr inbounds [101 x i32], [101 x i32]* %5, i64 0, i64 %106
  store i32 %102, i32* %107, align 4
  %108 = load i32, i32* %3, align 4
  %109 = load i32, i32* %7, align 4
  %110 = sub nsw i32 %108, %109
  %111 = sub nsw i32 %110, 1
  %112 = sext i32 %111 to i64
  %113 = getelementptr inbounds [101 x i8], [101 x i8]* %8, i64 0, i64 %112
  %114 = load i8, i8* %113, align 1
  %115 = sext i8 %114 to i32
  %116 = sub nsw i32 %115, 1
  %117 = trunc i32 %116 to i8
  %118 = load i32, i32* %3, align 4
  %119 = load i32, i32* %7, align 4
  %120 = sub nsw i32 %118, %119
  %121 = sub nsw i32 %120, 1
  %122 = sext i32 %121 to i64
  %123 = getelementptr inbounds [101 x i8], [101 x i8]* %8, i64 0, i64 %122
  store i8 %117, i8* %123, align 1
  br label %124

124:                                              ; preds = %86, %70
  br label %125

125:                                              ; preds = %124
  %126 = load i32, i32* %7, align 4
  %127 = add nsw i32 %126, 1
  store i32 %127, i32* %7, align 4
  br label %29

128:                                              ; preds = %29
  store i32 0, i32* %7, align 4
  br label %129

129:                                              ; preds = %145, %128
  %130 = load i32, i32* %7, align 4
  %131 = load i32, i32* %3, align 4
  %132 = load i32, i32* %4, align 4
  %133 = sub nsw i32 %131, %132
  %134 = icmp slt i32 %130, %133
  br i1 %134, label %135, label %148

135:                                              ; preds = %129
  %136 = load i32, i32* %7, align 4
  %137 = sext i32 %136 to i64
  %138 = getelementptr inbounds [101 x i8], [101 x i8]* %8, i64 0, i64 %137
  %139 = load i8, i8* %138, align 1
  %140 = sext i8 %139 to i32
  %141 = sub nsw i32 %140, 48
  %142 = load i32, i32* %7, align 4
  %143 = sext i32 %142 to i64
  %144 = getelementptr inbounds [101 x i32], [101 x i32]* %5, i64 0, i64 %143
  store i32 %141, i32* %144, align 4
  br label %145

145:                                              ; preds = %135
  %146 = load i32, i32* %7, align 4
  %147 = add nsw i32 %146, 1
  store i32 %147, i32* %7, align 4
  br label %129

148:                                              ; preds = %129
  store i32 0, i32* %7, align 4
  br label %149

149:                                              ; preds = %159, %148
  %150 = load i32, i32* %7, align 4
  %151 = load i32, i32* %3, align 4
  %152 = icmp slt i32 %150, %151
  br i1 %152, label %153, label %162

153:                                              ; preds = %149
  %154 = load i32, i32* %7, align 4
  %155 = sext i32 %154 to i64
  %156 = getelementptr inbounds [101 x i32], [101 x i32]* %5, i64 0, i64 %155
  %157 = load i32, i32* %156, align 4
  %158 = call i32 (i8*, ...) @printf(i8* getelementptr inbounds ([3 x i8], [3 x i8]* @.str, i64 0, i64 0), i32 %157)
  br label %159

159:                                              ; preds = %153
  %160 = load i32, i32* %7, align 4
  %161 = add nsw i32 %160, 1
  store i32 %161, i32* %7, align 4
  br label %149

162:                                              ; preds = %149
  %163 = call i32 (i8*, ...) @printf(i8* getelementptr inbounds ([2 x i8], [2 x i8]* @.str.1, i64 0, i64 0))
  br label %164

164:                                              ; preds = %162
  %165 = load i32, i32* %6, align 4
  %166 = add nsw i32 %165, 1
  store i32 %166, i32* %6, align 4
  br label %12

167:                                              ; preds = %12
  %168 = load i32, i32* %1, align 4
  ret i32 %168
}

declare dso_local i32 @__isoc99_scanf(i8*, ...) #1

declare dso_local i32 @gets(...) #1

; Function Attrs: nounwind readonly
declare dso_local i64 @strlen(i8*) #2

declare dso_local i32 @printf(i8*, ...) #1


!llvm.module.flags = !{!0}
!llvm.ident = !{!1}

!0 = !{i32 1, !"wchar_size", i32 4}
!1 = !{!"clang version 10.0.0-4ubuntu1 "}
